; Function Attrs: inlinehint nofree nounwind uwtable
define internal void @print_verbose(ptr noundef readonly captures(none) %0, ptr noundef readonly captures(none) %1, ...) unnamed_addr #14 {
  %3 = alloca [1 x %struct.__va_list_tag], align 16
  call void @llvm.lifetime.start.p0(i64 24, ptr nonnull %3) #20
  %4 = getelementptr inbounds nuw i8, ptr %0, i64 136
  %5 = load i32, ptr %4, align 8
  %6 = and i32 %5, 256
  %.not = icmp eq i32 %6, 0
  br i1 %.not, label %12, label %7

7:                                                ; preds = %2
  call void @llvm.va_start.p0(ptr nonnull %3)
  %8 = load ptr, ptr @stderr, align 8, !tbaa !182
  %9 = call i32 @vfprintf(ptr noundef %8, ptr noundef %1, ptr noundef nonnull %3) #23
  call void @llvm.va_end.p0(ptr nonnull %3)
  %10 = load ptr, ptr @stderr, align 8, !tbaa !182
  %11 = call i32 @fputc(i32 noundef 10, ptr noundef %10)
  br label %12

12:                                               ; preds = %2, %7
  call void @llvm.lifetime.end.p0(i64 24, ptr nonnull %3) #20
  ret void
}